target datalayout = "e-m:e-p270:32:32-p271:32:32-p272:64:64-i64:64-i128:128-f80:128-n8:16:32:64-S128"
target triple = "x86_64-pc-linux-gnu"

%"struct.pkpy::Str" = type { i32, i8, ptr, [16 x i8] }

; Function Attrs: mustprogress nounwind uwtable
define void @_ZN4pkpy3StrC2ERKNSt7__cxx1112basic_stringIcSt11char_traitsIcESaIcEEE(ptr noundef nonnull align 8 dereferenceable(32) %0, ptr noundef nonnull align 8 dereferenceable(32) %1) unnamed_addr #5 align 2 {
  %3 = alloca ptr, align 8
  %4 = alloca ptr, align 8
  %5 = alloca i32, align 4
  store ptr %0, ptr %3, align 8
  store ptr %1, ptr %4, align 8
  %6 = load ptr, ptr %3, align 8
  %7 = getelementptr inbounds %"struct.pkpy::Str", ptr %6, i32 0, i32 0
  %8 = load ptr, ptr %4, align 8
  %9 = call noundef i64 @_ZNKSt7__cxx1112basic_stringIcSt11char_traitsIcESaIcEE4sizeEv(ptr noundef nonnull align 8 dereferenceable(32) %8) #3
  %10 = trunc i64 %9 to i32
  store i32 %10, ptr %7, align 8
  %11 = getelementptr inbounds %"struct.pkpy::Str", ptr %6, i32 0, i32 1
  store i8 1, ptr %11, align 4
  %12 = getelementptr inbounds %"struct.pkpy::Str", ptr %6, i32 0, i32 0
  %13 = load i32, ptr %12, align 8
  %14 = icmp slt i32 %13, 16
  br i1 %14, label %15, label %19

15:                                               ; preds = %2
  %16 = getelementptr inbounds %"struct.pkpy::Str", ptr %6, i32 0, i32 3
  %17 = getelementptr inbounds [16 x i8], ptr %16, i64 0, i64 0
  %18 = getelementptr inbounds %"struct.pkpy::Str", ptr %6, i32 0, i32 2
  store ptr %17, ptr %18, align 8
  br label %26

19:                                               ; preds = %2
  %20 = getelementptr inbounds %"struct.pkpy::Str", ptr %6, i32 0, i32 0
  %21 = load i32, ptr %20, align 8
  %22 = add nsw i32 %21, 1
  %23 = sext i32 %22 to i64
  %24 = call noundef ptr @_ZN4pkpy12pool64_allocEm(i64 noundef %23) #3
  %25 = getelementptr inbounds %"struct.pkpy::Str", ptr %6, i32 0, i32 2
  store ptr %24, ptr %25, align 8
  br label %26

26:                                               ; preds = %19, %15
  store i32 0, ptr %5, align 4
  br label %27

27:                                               ; preds = %54, %26
  %28 = load i32, ptr %5, align 4
  %29 = getelementptr inbounds %"struct.pkpy::Str", ptr %6, i32 0, i32 0
  %30 = load i32, ptr %29, align 8
  %31 = icmp slt i32 %28, %30
  br i1 %31, label %32, label %57

32:                                               ; preds = %27
  %33 = load ptr, ptr %4, align 8
  %34 = load i32, ptr %5, align 4
  %35 = sext i32 %34 to i64
  %36 = call noundef nonnull align 1 dereferenceable(1) ptr @_ZNKSt7__cxx1112basic_stringIcSt11char_traitsIcESaIcEEixEm(ptr noundef nonnull align 8 dereferenceable(32) %33, i64 noundef %35) #3
  %37 = load i8, ptr %36, align 1
  %38 = getelementptr inbounds %"struct.pkpy::Str", ptr %6, i32 0, i32 2
  %39 = load ptr, ptr %38, align 8
  %40 = load i32, ptr %5, align 4
  %41 = sext i32 %40 to i64
  %42 = getelementptr inbounds i8, ptr %39, i64 %41
  store i8 %37, ptr %42, align 1
  %43 = load ptr, ptr %4, align 8
  %44 = load i32, ptr %5, align 4
  %45 = sext i32 %44 to i64
  %46 = call noundef nonnull align 1 dereferenceable(1) ptr @_ZNKSt7__cxx1112basic_stringIcSt11char_traitsIcESaIcEEixEm(ptr noundef nonnull align 8 dereferenceable(32) %43, i64 noundef %45) #3
  %47 = load i8, ptr %46, align 1
  %48 = sext i8 %47 to i32
  %49 = call i32 @isascii(i32 noundef %48) #3
  %50 = icmp ne i32 %49, 0
  br i1 %50, label %53, label %51

51:                                               ; preds = %32
  %52 = getelementptr inbounds %"struct.pkpy::Str", ptr %6, i32 0, i32 1
  store i8 0, ptr %52, align 4
  br label %53

53:                                               ; preds = %51, %32
  br label %54

54:                                               ; preds = %53
  %55 = load i32, ptr %5, align 4
  %56 = add nsw i32 %55, 1
  store i32 %56, ptr %5, align 4
  br label %27, !llvm.loop !4

57:                                               ; preds = %27
  %58 = getelementptr inbounds %"struct.pkpy::Str", ptr %6, i32 0, i32 2
  %59 = load ptr, ptr %58, align 8
  %60 = getelementptr inbounds %"struct.pkpy::Str", ptr %6, i32 0, i32 0
  %61 = load i32, ptr %60, align 8
  %62 = sext i32 %61 to i64
  %63 = getelementptr inbounds i8, ptr %59, i64 %62
  store i8 0, ptr %63, align 1
  ret void
}