; Function Attrs: mustprogress nounwind uwtable
define void @_ZN4pkpy3StrC2ERKNSt7__cxx1112basic_stringIcSt11char_traitsIcESaIcEEE(ptr noundef nonnull align 8 dereferenceable(32) %0, ptr noundef nonnull align 8 dereferenceable(32) %1) unnamed_addr #4 align 2 {
  %3 = tail call noundef i64 @_ZNKSt7__cxx1112basic_stringIcSt11char_traitsIcESaIcEE4sizeEv(ptr noundef nonnull align 8 dereferenceable(32) %1) #23
  %4 = trunc i64 %3 to i32
  store i32 %4, ptr %0, align 8
  %5 = getelementptr inbounds i8, ptr %0, i64 4
  store i8 1, ptr %5, align 4
  %6 = icmp slt i32 %4, 16
  br i1 %6, label %7, label %9

7:                                                ; preds = %2
  %8 = getelementptr inbounds i8, ptr %0, i64 16
  br label %13

9:                                                ; preds = %2
  %10 = add nuw nsw i64 %3, 1
  %11 = and i64 %10, 4294967295
  %12 = tail call noundef ptr @_ZN4pkpy12pool64_allocEm(i64 noundef %11) #23
  %.pre = load i32, ptr %0, align 8
  br label %13

13:                                               ; preds = %9, %7
  %14 = phi i32 [ %4, %7 ], [ %.pre, %9 ]
  %.sink = phi ptr [ %8, %7 ], [ %12, %9 ]
  %15 = getelementptr inbounds i8, ptr %0, i64 8
  store ptr %.sink, ptr %15, align 8
  %16 = icmp sgt i32 %14, 0
  br i1 %16, label %.lr.ph, label %.._crit_edge_crit_edge

.._crit_edge_crit_edge:                           ; preds = %13
  %.pre14 = sext i32 %14 to i64
  br label %._crit_edge

.lr.ph:                                           ; preds = %13, %24
  %indvars.iv = phi i64 [ %indvars.iv.next, %24 ], [ 0, %13 ]
  %17 = tail call noundef nonnull align 1 dereferenceable(1) ptr @_ZNKSt7__cxx1112basic_stringIcSt11char_traitsIcESaIcEEixEm(ptr noundef nonnull align 8 dereferenceable(32) %1, i64 noundef %indvars.iv) #23
  %18 = load i8, ptr %17, align 1
  %19 = load ptr, ptr %15, align 8
  %20 = getelementptr inbounds i8, ptr %19, i64 %indvars.iv
  store i8 %18, ptr %20, align 1
  %21 = tail call noundef nonnull align 1 dereferenceable(1) ptr @_ZNKSt7__cxx1112basic_stringIcSt11char_traitsIcESaIcEEixEm(ptr noundef nonnull align 8 dereferenceable(32) %1, i64 noundef %indvars.iv) #23
  %22 = load i8, ptr %21, align 1
  %isascii = icmp sgt i8 %22, -1
  br i1 %isascii, label %24, label %23

23:                                               ; preds = %.lr.ph
  store i8 0, ptr %5, align 4
  br label %24

24:                                               ; preds = %.lr.ph, %23
  %indvars.iv.next = add nuw nsw i64 %indvars.iv, 1
  %25 = load i32, ptr %0, align 8
  %26 = sext i32 %25 to i64
  %27 = icmp slt i64 %indvars.iv.next, %26
  br i1 %27, label %.lr.ph, label %._crit_edge.loopexit, !llvm.loop !7

._crit_edge.loopexit:                             ; preds = %24
  %.pre13 = load ptr, ptr %15, align 8
  br label %._crit_edge

._crit_edge:                                      ; preds = %.._crit_edge_crit_edge, %._crit_edge.loopexit
  %.pre-phi = phi i64 [ %.pre14, %.._crit_edge_crit_edge ], [ %26, %._crit_edge.loopexit ]
  %28 = phi ptr [ %.sink, %.._crit_edge_crit_edge ], [ %.pre13, %._crit_edge.loopexit ]
  %29 = getelementptr inbounds i8, ptr %28, i64 %.pre-phi
  store i8 0, ptr %29, align 1
  ret void
}